
boot_init.o:     file format elf32-littlearm


Disassembly of section .text:

00000000 <write_cmd>:
   0:	e3a03456 	mov	r3, #1442840576	; 0x56000000
   4:	e59f2020 	ldr	r2, [pc, #32]	; 2c <write_cmd+0x2c>
   8:	e59330b0 	ldr	r3, [r3, #176]	; 0xb0
   c:	e20000ff 	and	r0, r0, #255	; 0xff
  10:	e1a03823 	lsr	r3, r3, #16
  14:	e1a03803 	lsl	r3, r3, #16
  18:	e1530002 	cmp	r3, r2
  1c:	e3a0344e 	mov	r3, #1308622848	; 0x4e000000
  20:	05c30004 	strbeq	r0, [r3, #4]
  24:	15c30008 	strbne	r0, [r3, #8]
  28:	e1a0f00e 	mov	pc, lr
  2c:	32410000 	subcc	r0, r1, #0

00000030 <nand_select_chip>:
  30:	e3a03456 	mov	r3, #1442840576	; 0x56000000
  34:	e59f202c 	ldr	r2, [pc, #44]	; 68 <nand_select_chip+0x38>
  38:	e59330b0 	ldr	r3, [r3, #176]	; 0xb0
  3c:	e1a03823 	lsr	r3, r3, #16
  40:	e1a03803 	lsl	r3, r3, #16
  44:	e1530002 	cmp	r3, r2
  48:	e3a0344e 	mov	r3, #1308622848	; 0x4e000000
  4c:	05932000 	ldreq	r2, [r3]
  50:	15932004 	ldrne	r2, [r3, #4]
  54:	03c22b02 	biceq	r2, r2, #2048	; 0x800
  58:	13c22002 	bicne	r2, r2, #2
  5c:	05832000 	streq	r2, [r3]
  60:	15832004 	strne	r2, [r3, #4]
  64:	e1a0f00e 	mov	pc, lr
  68:	32410000 	subcc	r0, r1, #0

0000006c <nand_deselect_chip>:
  6c:	e3a03456 	mov	r3, #1442840576	; 0x56000000
  70:	e59f202c 	ldr	r2, [pc, #44]	; a4 <nand_deselect_chip+0x38>
  74:	e59330b0 	ldr	r3, [r3, #176]	; 0xb0
  78:	e1a03823 	lsr	r3, r3, #16
  7c:	e1a03803 	lsl	r3, r3, #16
  80:	e1530002 	cmp	r3, r2
  84:	e3a0344e 	mov	r3, #1308622848	; 0x4e000000
  88:	05932000 	ldreq	r2, [r3]
  8c:	15932004 	ldrne	r2, [r3, #4]
  90:	03822b02 	orreq	r2, r2, #2048	; 0x800
  94:	13822002 	orrne	r2, r2, #2
  98:	05832000 	streq	r2, [r3]
  9c:	15832004 	strne	r2, [r3, #4]
  a0:	e1a0f00e 	mov	pc, lr
  a4:	32410000 	subcc	r0, r1, #0

000000a8 <wait_idle>:
  a8:	e3a03456 	mov	r3, #1442840576	; 0x56000000
  ac:	e59f2034 	ldr	r2, [pc, #52]	; e8 <wait_idle+0x40>
  b0:	e59330b0 	ldr	r3, [r3, #176]	; 0xb0
  b4:	e1a03823 	lsr	r3, r3, #16
  b8:	e1a03803 	lsl	r3, r3, #16
  bc:	e1530002 	cmp	r3, r2
  c0:	e3a0244e 	mov	r2, #1308622848	; 0x4e000000
  c4:	1a000003 	bne	d8 <wait_idle+0x30>
  c8:	e5d23010 	ldrb	r3, [r2, #16]
  cc:	e3130001 	tst	r3, #1
  d0:	0afffffc 	beq	c8 <wait_idle+0x20>
  d4:	e1a0f00e 	mov	pc, lr
  d8:	e5d23020 	ldrb	r3, [r2, #32]
  dc:	e3130001 	tst	r3, #1
  e0:	0afffffc 	beq	d8 <wait_idle+0x30>
  e4:	e1a0f00e 	mov	pc, lr
  e8:	32410000 	subcc	r0, r1, #0

000000ec <nand_init_ll>:
  ec:	e3a03456 	mov	r3, #1442840576	; 0x56000000
  f0:	e59f20b0 	ldr	r2, [pc, #176]	; 1a8 <nand_init_ll+0xbc>
  f4:	e59330b0 	ldr	r3, [r3, #176]	; 0xb0
  f8:	e1a03823 	lsr	r3, r3, #16
  fc:	e1a03803 	lsl	r3, r3, #16
 100:	e1530002 	cmp	r3, r2
 104:	e3a0344e 	mov	r3, #1308622848	; 0x4e000000
 108:	059f209c 	ldreq	r2, [pc, #156]	; 1ac <nand_init_ll+0xc0>
 10c:	13a02c03 	movne	r2, #768	; 0x300
 110:	15832000 	strne	r2, [r3]
 114:	13a02013 	movne	r2, #19
 118:	15832004 	strne	r2, [r3, #4]
 11c:	05832000 	streq	r2, [r3]
 120:	e3a03456 	mov	r3, #1442840576	; 0x56000000
 124:	e59330b0 	ldr	r3, [r3, #176]	; 0xb0
 128:	e59f2078 	ldr	r2, [pc, #120]	; 1a8 <nand_init_ll+0xbc>
 12c:	e1a03823 	lsr	r3, r3, #16
 130:	e1a03803 	lsl	r3, r3, #16
 134:	e1530002 	cmp	r3, r2
 138:	e3a0344e 	mov	r3, #1308622848	; 0x4e000000
 13c:	1a00000c 	bne	174 <nand_init_ll+0x88>
 140:	e5932000 	ldr	r2, [r3]
 144:	e3c22b02 	bic	r2, r2, #2048	; 0x800
 148:	e5832000 	str	r2, [r3]
 14c:	e3e02000 	mvn	r2, #0
 150:	e5c32004 	strb	r2, [r3, #4]
 154:	e5d31010 	ldrb	r1, [r3, #16]
 158:	e3a0244e 	mov	r2, #1308622848	; 0x4e000000
 15c:	e3110001 	tst	r1, #1
 160:	0afffffb 	beq	154 <nand_init_ll+0x68>
 164:	e5923000 	ldr	r3, [r2]
 168:	e3833b02 	orr	r3, r3, #2048	; 0x800
 16c:	e5823000 	str	r3, [r2]
 170:	e1a0f00e 	mov	pc, lr
 174:	e5932004 	ldr	r2, [r3, #4]
 178:	e3c22002 	bic	r2, r2, #2
 17c:	e5832004 	str	r2, [r3, #4]
 180:	e3e02000 	mvn	r2, #0
 184:	e5c32008 	strb	r2, [r3, #8]
 188:	e5d31020 	ldrb	r1, [r3, #32]
 18c:	e3a0244e 	mov	r2, #1308622848	; 0x4e000000
 190:	e3110001 	tst	r1, #1
 194:	0afffffb 	beq	188 <nand_init_ll+0x9c>
 198:	e5923004 	ldr	r3, [r2, #4]
 19c:	e3833002 	orr	r3, r3, #2
 1a0:	e5823004 	str	r3, [r2, #4]
 1a4:	e1a0f00e 	mov	pc, lr
 1a8:	32410000 	subcc	r0, r1, #0
 1ac:	00009830 	andeq	r9, r0, r0, lsr r8

000001b0 <nand_read_ll>:
 1b0:	e1a03b81 	lsl	r3, r1, #23
 1b4:	e92d42f0 	push	{r4, r5, r6, r7, r9, lr}
 1b8:	e1a06001 	mov	r6, r1
 1bc:	e1a03ba3 	lsr	r3, r3, #23
 1c0:	e3530000 	cmp	r3, #0
 1c4:	18bd82f0 	popne	{r4, r5, r6, r7, r9, pc}
 1c8:	e1a03b82 	lsl	r3, r2, #23
 1cc:	e1a07002 	mov	r7, r2
 1d0:	e1a03ba3 	lsr	r3, r3, #23
 1d4:	e3530000 	cmp	r3, #0
 1d8:	18bd82f0 	popne	{r4, r5, r6, r7, r9, pc}
 1dc:	e59f90cc 	ldr	r9, [pc, #204]	; 2b0 <nand_read_ll+0x100>
 1e0:	e1a04006 	mov	r4, r6
 1e4:	e1a05000 	mov	r5, r0
 1e8:	ebffff90 	bl	30 <nand_select_chip>
 1ec:	e0863007 	add	r3, r6, r7
 1f0:	e1540003 	cmp	r4, r3
 1f4:	2a00002b 	bcs	2a8 <nand_read_ll+0xf8>
 1f8:	e3a00000 	mov	r0, #0
 1fc:	ebffff7f 	bl	0 <write_cmd>
 200:	e3a03456 	mov	r3, #1442840576	; 0x56000000
 204:	e204c0ff 	and	ip, r4, #255	; 0xff
 208:	e59330b0 	ldr	r3, [r3, #176]	; 0xb0
 20c:	e1a004a4 	lsr	r0, r4, #9
 210:	e1a018a4 	lsr	r1, r4, #17
 214:	e1a02ca4 	lsr	r2, r4, #25
 218:	e1a03823 	lsr	r3, r3, #16
 21c:	e1a03803 	lsl	r3, r3, #16
 220:	e1530009 	cmp	r3, r9
 224:	e3a0344e 	mov	r3, #1308622848	; 0x4e000000
 228:	1a000007 	bne	24c <nand_read_ll+0x9c>
 22c:	e20000ff 	and	r0, r0, #255	; 0xff
 230:	e20110ff 	and	r1, r1, #255	; 0xff
 234:	e20220ff 	and	r2, r2, #255	; 0xff
 238:	e5c3c008 	strb	ip, [r3, #8]
 23c:	e5c30008 	strb	r0, [r3, #8]
 240:	e5c31008 	strb	r1, [r3, #8]
 244:	e5c32008 	strb	r2, [r3, #8]
 248:	ea000006 	b	268 <nand_read_ll+0xb8>
 24c:	e20000ff 	and	r0, r0, #255	; 0xff
 250:	e20110ff 	and	r1, r1, #255	; 0xff
 254:	e20220ff 	and	r2, r2, #255	; 0xff
 258:	e5c3c00c 	strb	ip, [r3, #12]
 25c:	e5c3000c 	strb	r0, [r3, #12]
 260:	e5c3100c 	strb	r1, [r3, #12]
 264:	e5c3200c 	strb	r2, [r3, #12]
 268:	ebffff8e 	bl	a8 <wait_idle>
 26c:	e2851c02 	add	r1, r5, #512	; 0x200
 270:	e3a00456 	mov	r0, #1442840576	; 0x56000000
 274:	e3a0244e 	mov	r2, #1308622848	; 0x4e000000
 278:	e59030b0 	ldr	r3, [r0, #176]	; 0xb0
 27c:	e1a03823 	lsr	r3, r3, #16
 280:	e1a03803 	lsl	r3, r3, #16
 284:	e1530009 	cmp	r3, r9
 288:	05d2300c 	ldrbeq	r3, [r2, #12]
 28c:	15d23010 	ldrbne	r3, [r2, #16]
 290:	e20330ff 	and	r3, r3, #255	; 0xff
 294:	e4c53001 	strb	r3, [r5], #1
 298:	e1550001 	cmp	r5, r1
 29c:	1afffff5 	bne	278 <nand_read_ll+0xc8>
 2a0:	e2844c02 	add	r4, r4, #512	; 0x200
 2a4:	eaffffd0 	b	1ec <nand_read_ll+0x3c>
 2a8:	e8bd42f0 	pop	{r4, r5, r6, r7, r9, lr}
 2ac:	eaffff6e 	b	6c <nand_deselect_chip>
 2b0:	32410000 	subcc	r0, r1, #0

000002b4 <nand_read_ll_lp>:
 2b4:	e1a03a81 	lsl	r3, r1, #21
 2b8:	e92d42f0 	push	{r4, r5, r6, r7, r9, lr}
 2bc:	e1a06001 	mov	r6, r1
 2c0:	e1a03aa3 	lsr	r3, r3, #21
 2c4:	e3530000 	cmp	r3, #0
 2c8:	18bd82f0 	popne	{r4, r5, r6, r7, r9, pc}
 2cc:	e1a03a82 	lsl	r3, r2, #21
 2d0:	e1a07002 	mov	r7, r2
 2d4:	e1a03aa3 	lsr	r3, r3, #21
 2d8:	e3530000 	cmp	r3, #0
 2dc:	18bd82f0 	popne	{r4, r5, r6, r7, r9, pc}
 2e0:	e59f90f0 	ldr	r9, [pc, #240]	; 3d8 <nand_read_ll_lp+0x124>
 2e4:	e1a04006 	mov	r4, r6
 2e8:	e1a05000 	mov	r5, r0
 2ec:	ebffff4f 	bl	30 <nand_select_chip>
 2f0:	e0863007 	add	r3, r6, r7
 2f4:	e1540003 	cmp	r4, r3
 2f8:	2a000034 	bcs	3d0 <nand_read_ll_lp+0x11c>
 2fc:	e3a00000 	mov	r0, #0
 300:	ebffff3e 	bl	0 <write_cmd>
 304:	e3a03456 	mov	r3, #1442840576	; 0x56000000
 308:	e20400ff 	and	r0, r4, #255	; 0xff
 30c:	e59330b0 	ldr	r3, [r3, #176]	; 0xb0
 310:	e1a03823 	lsr	r3, r3, #16
 314:	e1a03803 	lsl	r3, r3, #16
 318:	e1530009 	cmp	r3, r9
 31c:	1a00000a 	bne	34c <nand_read_ll_lp+0x98>
 320:	e1a024a4 	lsr	r2, r4, #9
 324:	e3a0344e 	mov	r3, #1308622848	; 0x4e000000
 328:	e5c30008 	strb	r0, [r3, #8]
 32c:	e20220ff 	and	r2, r2, #255	; 0xff
 330:	e5c32008 	strb	r2, [r3, #8]
 334:	e1a028a4 	lsr	r2, r4, #17
 338:	e20220ff 	and	r2, r2, #255	; 0xff
 33c:	e5c32008 	strb	r2, [r3, #8]
 340:	e1a02ca4 	lsr	r2, r4, #25
 344:	e5c32008 	strb	r2, [r3, #8]
 348:	ea00000e 	b	388 <nand_read_ll_lp+0xd4>
 34c:	e1a01a84 	lsl	r1, r4, #21
 350:	e1a035a4 	lsr	r3, r4, #11
 354:	e1a01aa1 	lsr	r1, r1, #21
 358:	e3a0244e 	mov	r2, #1308622848	; 0x4e000000
 35c:	e5c2000c 	strb	r0, [r2, #12]
 360:	e1a01421 	lsr	r1, r1, #8
 364:	e5c2100c 	strb	r1, [r2, #12]
 368:	e20310ff 	and	r1, r3, #255	; 0xff
 36c:	e5c2100c 	strb	r1, [r2, #12]
 370:	e1a01443 	asr	r1, r3, #8
 374:	e1a03843 	asr	r3, r3, #16
 378:	e20110ff 	and	r1, r1, #255	; 0xff
 37c:	e2033003 	and	r3, r3, #3
 380:	e5c2100c 	strb	r1, [r2, #12]
 384:	e5c2300c 	strb	r3, [r2, #12]
 388:	e3a00030 	mov	r0, #48	; 0x30
 38c:	ebffff1b 	bl	0 <write_cmd>
 390:	ebffff44 	bl	a8 <wait_idle>
 394:	e2851b02 	add	r1, r5, #2048	; 0x800
 398:	e3a00456 	mov	r0, #1442840576	; 0x56000000
 39c:	e3a0244e 	mov	r2, #1308622848	; 0x4e000000
 3a0:	e59030b0 	ldr	r3, [r0, #176]	; 0xb0
 3a4:	e1a03823 	lsr	r3, r3, #16
 3a8:	e1a03803 	lsl	r3, r3, #16
 3ac:	e1530009 	cmp	r3, r9
 3b0:	05d2300c 	ldrbeq	r3, [r2, #12]
 3b4:	15d23010 	ldrbne	r3, [r2, #16]
 3b8:	e20330ff 	and	r3, r3, #255	; 0xff
 3bc:	e4c53001 	strb	r3, [r5], #1
 3c0:	e1550001 	cmp	r5, r1
 3c4:	1afffff5 	bne	3a0 <nand_read_ll_lp+0xec>
 3c8:	e2844b02 	add	r4, r4, #2048	; 0x800
 3cc:	eaffffc7 	b	2f0 <nand_read_ll_lp+0x3c>
 3d0:	e8bd42f0 	pop	{r4, r5, r6, r7, r9, lr}
 3d4:	eaffff24 	b	6c <nand_deselect_chip>
 3d8:	32410000 	subcc	r0, r1, #0

000003dc <bBootFrmNORFlash>:
 3dc:	e3a03000 	mov	r3, #0
 3e0:	e5933000 	ldr	r3, [r3]
 3e4:	e7f000f0 	udf	#0

000003e8 <CopyCode2Ram>:
 3e8:	e52de004 	push	{lr}		; (str lr, [sp, #-4]!)
 3ec:	ebfffffe 	bl	3dc <bBootFrmNORFlash>

000003f0 <clock_init>:
 3f0:	e3a03456 	mov	r3, #1442840576	; 0x56000000
 3f4:	e59f2094 	ldr	r2, [pc, #148]	; 490 <clock_init+0xa0>
 3f8:	e59330b0 	ldr	r3, [r3, #176]	; 0xb0
 3fc:	e1a03823 	lsr	r3, r3, #16
 400:	e1a03803 	lsl	r3, r3, #16
 404:	e1530002 	cmp	r3, r2
 408:	e3a03313 	mov	r3, #1275068416	; 0x4c000000
 40c:	1a00000d 	bne	448 <clock_init+0x58>
 410:	e3a02003 	mov	r2, #3
 414:	e5832014 	str	r2, [r3, #20]
 418:	ee111f10 	mrc	15, 0, r1, cr1, cr0, {0}
 41c:	e3811103 	orr	r1, r1, #-1073741824	; 0xc0000000
 420:	ee011f10 	mcr	15, 0, r1, cr1, cr0, {0}
 424:	e3e02000 	mvn	r2, #0
 428:	e5832000 	str	r2, [r3]
 42c:	e59f2060 	ldr	r2, [pc, #96]	; 494 <clock_init+0xa4>
 430:	e5832008 	str	r2, [r3, #8]
 434:	e3a02efa 	mov	r2, #4000	; 0xfa0
 438:	e2522001 	subs	r2, r2, #1
 43c:	1afffffd 	bne	438 <clock_init+0x48>
 440:	e59f2050 	ldr	r2, [pc, #80]	; 498 <clock_init+0xa8>
 444:	ea00000c 	b	47c <clock_init+0x8c>
 448:	e3a02005 	mov	r2, #5
 44c:	e5832014 	str	r2, [r3, #20]
 450:	ee111f10 	mrc	15, 0, r1, cr1, cr0, {0}
 454:	e3811103 	orr	r1, r1, #-1073741824	; 0xc0000000
 458:	ee011f10 	mcr	15, 0, r1, cr1, cr0, {0}
 45c:	e3e02000 	mvn	r2, #0
 460:	e5832000 	str	r2, [r3]
 464:	e59f2030 	ldr	r2, [pc, #48]	; 49c <clock_init+0xac>
 468:	e5832008 	str	r2, [r3, #8]
 46c:	e3a02efa 	mov	r2, #4000	; 0xfa0
 470:	e2522001 	subs	r2, r2, #1
 474:	1afffffd 	bne	470 <clock_init+0x80>
 478:	e59f2020 	ldr	r2, [pc, #32]	; 4a0 <clock_init+0xb0>
 47c:	e5832004 	str	r2, [r3, #4]
 480:	e3a03d7d 	mov	r3, #8000	; 0x1f40
 484:	e2533001 	subs	r3, r3, #1
 488:	1afffffd 	bne	484 <clock_init+0x94>
 48c:	e1a0f00e 	mov	pc, lr
 490:	32410000 	subcc	r0, r1, #0
 494:	00028012 	andeq	r8, r2, r2, lsl r0
 498:	0005c040 	andeq	ip, r5, r0, asr #32
 49c:	00038022 	andeq	r8, r3, r2, lsr #32
 4a0:	0005c011 	andeq	ip, r5, r1, lsl r0
